                                      1 ;--------------------------------------------------------
                                      2 ; File Created by SDCC : free open source ISO C Compiler
                                      3 ; Version 4.5.10 #15702 (MINGW64)
                                      4 ;--------------------------------------------------------
                                      5 	.module stm8_PWM
                                      6 	
                                      7 ;--------------------------------------------------------
                                      8 ; Public variables in this module
                                      9 ;--------------------------------------------------------
                                     10 	.globl _init_PWM
                                     11 	.globl _startChannel_PWM
                                     12 	.globl _stopChannel_PWM
                                     13 	.globl _write_PWM
                                     14 	.globl _writePercent_PWM
                                     15 ;--------------------------------------------------------
                                     16 ; ram data
                                     17 ;--------------------------------------------------------
                                     18 	.area DATA
                                     19 ;--------------------------------------------------------
                                     20 ; ram data
                                     21 ;--------------------------------------------------------
                                     22 	.area INITIALIZED
      000000                         23 _memory_period:
      000000                         24 	.ds 2
                                     25 ;--------------------------------------------------------
                                     26 ; absolute external ram data
                                     27 ;--------------------------------------------------------
                                     28 	.area DABS (ABS)
                                     29 
                                     30 ; default segment ordering for linker
                                     31 	.area HOME
                                     32 	.area GSINIT
                                     33 	.area GSFINAL
                                     34 	.area CONST
                                     35 	.area INITIALIZER
                                     36 	.area CODE
                                     37 
                                     38 ;--------------------------------------------------------
                                     39 ; global & static initialisations
                                     40 ;--------------------------------------------------------
                                     41 	.area HOME
                                     42 	.area GSINIT
                                     43 	.area GSFINAL
                                     44 	.area GSINIT
                                     45 ;--------------------------------------------------------
                                     46 ; Home
                                     47 ;--------------------------------------------------------
                                     48 	.area HOME
                                     49 	.area HOME
                                     50 ;--------------------------------------------------------
                                     51 ; code
                                     52 ;--------------------------------------------------------
                                     53 	.area CODE
                                     54 ;	../../libs/stm8_PWM.c: 5: void init_PWM(uint16_t period) {	// period = Fmaster / Fpwm (для удобства лучше использовать 1023)
                                     55 ;	-----------------------------------------
                                     56 ;	 function init_PWM
                                     57 ;	-----------------------------------------
      000000                         58 _init_PWM:
                                     59 ;	../../libs/stm8_PWM.c: 6: CLK_PCKENR1 |= (1 << 5);		//включить тактирование TIM2
      000000 72 1A 50 C7      [ 1]   60 	bset	0x50c7, #5
                                     61 ;	../../libs/stm8_PWM.c: 8: memory_period = period;			// запомним период чтобы считать проценты
      000004 CFu00u00         [ 2]   62 	ldw	_memory_period+0, x
                                     63 ;	../../libs/stm8_PWM.c: 10: TIM2_ARRH = (uint8_t)((period >> 8));	//устанавливаем период
      000007 9E               [ 1]   64 	ld	a, xh
      000008 C7 53 0F         [ 1]   65 	ld	0x530f, a
                                     66 ;	../../libs/stm8_PWM.c: 11: TIM2_ARRL = (uint8_t)((period & 0xFF));
      00000B 9F               [ 1]   67 	ld	a, xl
      00000C C7 53 10         [ 1]   68 	ld	0x5310, a
                                     69 ;	../../libs/stm8_PWM.c: 13: TIM2_CCMR1 &= ~(0b111 << 4);		//сбрасываем значения настройки в 0 PD4
      00000F C6 53 07         [ 1]   70 	ld	a, 0x5307
      000012 A4 8F            [ 1]   71 	and	a, #0x8f
      000014 C7 53 07         [ 1]   72 	ld	0x5307, a
                                     73 ;	../../libs/stm8_PWM.c: 14: TIM2_CCMR2 &= ~(0b111 << 4);		//PD3
      000017 C6 53 08         [ 1]   74 	ld	a, 0x5308
      00001A A4 8F            [ 1]   75 	and	a, #0x8f
      00001C C7 53 08         [ 1]   76 	ld	0x5308, a
                                     77 ;	../../libs/stm8_PWM.c: 15: TIM2_CCMR3 &= ~(0b111 << 4);		//PA3
      00001F C6 53 09         [ 1]   78 	ld	a, 0x5309
      000022 A4 8F            [ 1]   79 	and	a, #0x8f
      000024 C7 53 09         [ 1]   80 	ld	0x5309, a
                                     81 ;	../../libs/stm8_PWM.c: 17: TIM2_CCMR1 |= (0b110 << 4);		//настроить режим работы вывода PD4
      000027 C6 53 07         [ 1]   82 	ld	a, 0x5307
      00002A AA 60            [ 1]   83 	or	a, #0x60
      00002C C7 53 07         [ 1]   84 	ld	0x5307, a
                                     85 ;	../../libs/stm8_PWM.c: 18: TIM2_CCMR2 |= (0b110 << 4);		//PD3
      00002F C6 53 08         [ 1]   86 	ld	a, 0x5308
      000032 AA 60            [ 1]   87 	or	a, #0x60
      000034 C7 53 08         [ 1]   88 	ld	0x5308, a
                                     89 ;	../../libs/stm8_PWM.c: 19: TIM2_CCMR3 |= (0b110 << 4);		//PA3
      000037 C6 53 09         [ 1]   90 	ld	a, 0x5309
      00003A AA 60            [ 1]   91 	or	a, #0x60
      00003C C7 53 09         [ 1]   92 	ld	0x5309, a
                                     93 ;	../../libs/stm8_PWM.c: 21: TIM2_CCMR1 |= (1 << 3);		//настроить PD4 как выход
      00003F 72 16 53 07      [ 1]   94 	bset	0x5307, #3
                                     95 ;	../../libs/stm8_PWM.c: 22: TIM2_CCMR2 |= (1 << 3);		//PD3
      000043 72 16 53 08      [ 1]   96 	bset	0x5308, #3
                                     97 ;	../../libs/stm8_PWM.c: 23: TIM2_CCMR3 |= (1 << 3);		//PA3
      000047 72 16 53 09      [ 1]   98 	bset	0x5309, #3
                                     99 ;	../../libs/stm8_PWM.c: 25: TIM2_CCMR1 &= ~0b11;		//настроить PD4 как выход
      00004B C6 53 07         [ 1]  100 	ld	a, 0x5307
      00004E A4 FC            [ 1]  101 	and	a, #0xfc
      000050 C7 53 07         [ 1]  102 	ld	0x5307, a
                                    103 ;	../../libs/stm8_PWM.c: 26: TIM2_CCMR2 &= ~0b11;		//PD3
      000053 C6 53 08         [ 1]  104 	ld	a, 0x5308
      000056 A4 FC            [ 1]  105 	and	a, #0xfc
      000058 C7 53 08         [ 1]  106 	ld	0x5308, a
                                    107 ;	../../libs/stm8_PWM.c: 27: TIM2_CCMR3 &= ~0b11;		//PA3
      00005B C6 53 09         [ 1]  108 	ld	a, 0x5309
      00005E A4 FC            [ 1]  109 	and	a, #0xfc
      000060 C7 53 09         [ 1]  110 	ld	0x5309, a
                                    111 ;	../../libs/stm8_PWM.c: 29: TIM2_CR1 |= (1 << 7) | (1 << 0);
      000063 C6 53 00         [ 1]  112 	ld	a, 0x5300
      000066 AA 81            [ 1]  113 	or	a, #0x81
      000068 C7 53 00         [ 1]  114 	ld	0x5300, a
                                    115 ;	../../libs/stm8_PWM.c: 30: }
      00006B 81               [ 4]  116 	ret
                                    117 ;	../../libs/stm8_PWM.c: 32: void startChannel_PWM(uint8_t channel) {	//функция разрешает вывод на соответствующий пин
                                    118 ;	-----------------------------------------
                                    119 ;	 function startChannel_PWM
                                    120 ;	-----------------------------------------
      00006C                        121 _startChannel_PWM:
                                    122 ;	../../libs/stm8_PWM.c: 33: switch (channel) {
      00006C A1 01            [ 1]  123 	cp	a, #0x01
      00006E 27 09            [ 1]  124 	jreq	00101$
      000070 A1 02            [ 1]  125 	cp	a, #0x02
      000072 27 12            [ 1]  126 	jreq	00102$
      000074 A1 03            [ 1]  127 	cp	a, #0x03
      000076 27 1B            [ 1]  128 	jreq	00103$
      000078 81               [ 4]  129 	ret
                                    130 ;	../../libs/stm8_PWM.c: 34: case 1:		//PD4
      000079                        131 00101$:
                                    132 ;	../../libs/stm8_PWM.c: 35: PD_DDR |= (1 << 4);
      000079 72 18 50 11      [ 1]  133 	bset	0x5011, #4
                                    134 ;	../../libs/stm8_PWM.c: 36: PD_CR1 |= (1 << 4);
      00007D 72 18 50 12      [ 1]  135 	bset	0x5012, #4
                                    136 ;	../../libs/stm8_PWM.c: 37: TIM2_CCER1 |= (1 << 0);	
      000081 72 10 53 0A      [ 1]  137 	bset	0x530a, #0
                                    138 ;	../../libs/stm8_PWM.c: 38: break;
      000085 81               [ 4]  139 	ret
                                    140 ;	../../libs/stm8_PWM.c: 39: case 2:		//PD3
      000086                        141 00102$:
                                    142 ;	../../libs/stm8_PWM.c: 40: PD_DDR |= (1 << 3);
      000086 72 16 50 11      [ 1]  143 	bset	0x5011, #3
                                    144 ;	../../libs/stm8_PWM.c: 41: PD_CR1 |= (1 << 3);
      00008A 72 16 50 12      [ 1]  145 	bset	0x5012, #3
                                    146 ;	../../libs/stm8_PWM.c: 42: TIM2_CCER1 |= (1 << 4);	
      00008E 72 18 53 0A      [ 1]  147 	bset	0x530a, #4
                                    148 ;	../../libs/stm8_PWM.c: 43: break;
      000092 81               [ 4]  149 	ret
                                    150 ;	../../libs/stm8_PWM.c: 44: case 3:		//PA3
      000093                        151 00103$:
                                    152 ;	../../libs/stm8_PWM.c: 45: PA_DDR |= (1 << 3);
      000093 72 16 50 02      [ 1]  153 	bset	0x5002, #3
                                    154 ;	../../libs/stm8_PWM.c: 46: PA_CR1 |= (1 << 3);
      000097 72 16 50 03      [ 1]  155 	bset	0x5003, #3
                                    156 ;	../../libs/stm8_PWM.c: 47: TIM2_CCER2 |= (1 << 0);	
      00009B 72 10 53 0B      [ 1]  157 	bset	0x530b, #0
                                    158 ;	../../libs/stm8_PWM.c: 50: }
                                    159 ;	../../libs/stm8_PWM.c: 51: }
      00009F 81               [ 4]  160 	ret
                                    161 ;	../../libs/stm8_PWM.c: 53: void stopChannel_PWM(uint8_t channel) {		//функция запрещает вывод на соответствующий пин
                                    162 ;	-----------------------------------------
                                    163 ;	 function stopChannel_PWM
                                    164 ;	-----------------------------------------
      0000A0                        165 _stopChannel_PWM:
                                    166 ;	../../libs/stm8_PWM.c: 54: switch (channel) {
      0000A0 A1 01            [ 1]  167 	cp	a, #0x01
      0000A2 27 09            [ 1]  168 	jreq	00101$
      0000A4 A1 02            [ 1]  169 	cp	a, #0x02
      0000A6 27 0A            [ 1]  170 	jreq	00102$
      0000A8 A1 03            [ 1]  171 	cp	a, #0x03
      0000AA 27 0B            [ 1]  172 	jreq	00103$
      0000AC 81               [ 4]  173 	ret
                                    174 ;	../../libs/stm8_PWM.c: 55: case 1:		//PD4
      0000AD                        175 00101$:
                                    176 ;	../../libs/stm8_PWM.c: 56: TIM2_CCER1 &= ~(1 << 0);
      0000AD 72 11 53 0A      [ 1]  177 	bres	0x530a, #0
                                    178 ;	../../libs/stm8_PWM.c: 57: break;
      0000B1 81               [ 4]  179 	ret
                                    180 ;	../../libs/stm8_PWM.c: 58: case 2:		//PD3
      0000B2                        181 00102$:
                                    182 ;	../../libs/stm8_PWM.c: 59: TIM2_CCER1 &= ~(1 << 4);
      0000B2 72 19 53 0A      [ 1]  183 	bres	0x530a, #4
                                    184 ;	../../libs/stm8_PWM.c: 60: break;
      0000B6 81               [ 4]  185 	ret
                                    186 ;	../../libs/stm8_PWM.c: 61: case 3:		//PA3
      0000B7                        187 00103$:
                                    188 ;	../../libs/stm8_PWM.c: 62: TIM2_CCER2 &= ~(1 << 0);
      0000B7 72 11 53 0B      [ 1]  189 	bres	0x530b, #0
                                    190 ;	../../libs/stm8_PWM.c: 65: }
                                    191 ;	../../libs/stm8_PWM.c: 66: }
      0000BB 81               [ 4]  192 	ret
                                    193 ;	../../libs/stm8_PWM.c: 68: void write_PWM(uint8_t channel, uint16_t value) {
                                    194 ;	-----------------------------------------
                                    195 ;	 function write_PWM
                                    196 ;	-----------------------------------------
      0000BC                        197 _write_PWM:
                                    198 ;	../../libs/stm8_PWM.c: 72: TIM2_CCR1L = (uint8_t)(value & 0xFF);
      0000BC 90 93            [ 1]  199 	ldw	y, x
                                    200 ;	../../libs/stm8_PWM.c: 69: switch (channel) {
      0000BE A1 01            [ 1]  201 	cp	a, #0x01
      0000C0 27 09            [ 1]  202 	jreq	00101$
      0000C2 A1 02            [ 1]  203 	cp	a, #0x02
      0000C4 27 10            [ 1]  204 	jreq	00102$
      0000C6 A1 03            [ 1]  205 	cp	a, #0x03
      0000C8 27 17            [ 1]  206 	jreq	00103$
      0000CA 81               [ 4]  207 	ret
                                    208 ;	../../libs/stm8_PWM.c: 70: case 1:
      0000CB                        209 00101$:
                                    210 ;	../../libs/stm8_PWM.c: 71: TIM2_CCR1H = (uint8_t)(value >> 8);
      0000CB 9E               [ 1]  211 	ld	a, xh
      0000CC C7 53 11         [ 1]  212 	ld	0x5311, a
                                    213 ;	../../libs/stm8_PWM.c: 72: TIM2_CCR1L = (uint8_t)(value & 0xFF);
      0000CF AE 53 12         [ 2]  214 	ldw	x, #0x5312
      0000D2 90 9F            [ 1]  215 	ld	a, yl
      0000D4 F7               [ 1]  216 	ld	(x), a
                                    217 ;	../../libs/stm8_PWM.c: 73: break;
      0000D5 81               [ 4]  218 	ret
                                    219 ;	../../libs/stm8_PWM.c: 74: case 2:
      0000D6                        220 00102$:
                                    221 ;	../../libs/stm8_PWM.c: 75: TIM2_CCR2H = (uint8_t)(value >> 8);
      0000D6 9E               [ 1]  222 	ld	a, xh
      0000D7 C7 53 13         [ 1]  223 	ld	0x5313, a
                                    224 ;	../../libs/stm8_PWM.c: 76: TIM2_CCR2L = (uint8_t)(value & 0xFF);
      0000DA AE 53 14         [ 2]  225 	ldw	x, #0x5314
      0000DD 90 9F            [ 1]  226 	ld	a, yl
      0000DF F7               [ 1]  227 	ld	(x), a
                                    228 ;	../../libs/stm8_PWM.c: 77: break;
      0000E0 81               [ 4]  229 	ret
                                    230 ;	../../libs/stm8_PWM.c: 78: case 3:
      0000E1                        231 00103$:
                                    232 ;	../../libs/stm8_PWM.c: 79: TIM2_CCR3H = (uint8_t)(value >> 8);
      0000E1 9E               [ 1]  233 	ld	a, xh
      0000E2 C7 53 15         [ 1]  234 	ld	0x5315, a
                                    235 ;	../../libs/stm8_PWM.c: 80: TIM2_CCR3L = (uint8_t)(value & 0xFF);
      0000E5 AE 53 16         [ 2]  236 	ldw	x, #0x5316
      0000E8 90 9F            [ 1]  237 	ld	a, yl
      0000EA F7               [ 1]  238 	ld	(x), a
                                    239 ;	../../libs/stm8_PWM.c: 83: }
                                    240 ;	../../libs/stm8_PWM.c: 84: }
      0000EB 81               [ 4]  241 	ret
                                    242 ;	../../libs/stm8_PWM.c: 86: void writePercent_PWM(uint8_t channel, uint8_t percent) {
                                    243 ;	-----------------------------------------
                                    244 ;	 function writePercent_PWM
                                    245 ;	-----------------------------------------
      0000EC                        246 _writePercent_PWM:
      0000EC 52 09            [ 2]  247 	sub	sp, #9
      0000EE 6B 09            [ 1]  248 	ld	(0x09, sp), a
                                    249 ;	../../libs/stm8_PWM.c: 87: if (percent > 100) percent = 100;
      0000F0 7B 0C            [ 1]  250 	ld	a, (0x0c, sp)
      0000F2 A1 64            [ 1]  251 	cp	a, #0x64
      0000F4 23 04            [ 2]  252 	jrule	00102$
      0000F6 A6 64            [ 1]  253 	ld	a, #0x64
      0000F8 6B 0C            [ 1]  254 	ld	(0x0c, sp), a
      0000FA                        255 00102$:
                                    256 ;	../../libs/stm8_PWM.c: 88: uint16_t value = (uint16_t)(((uint32_t)percent * memory_period) / 100);
      0000FA 7B 0C            [ 1]  257 	ld	a, (0x0c, sp)
      0000FC 5F               [ 1]  258 	clrw	x
      0000FD 1F 01            [ 2]  259 	ldw	(0x01, sp), x
      0000FF 90 CEu00u00      [ 2]  260 	ldw	y, _memory_period+0
      000103 0F 06            [ 1]  261 	clr	(0x06, sp)
      000105 0F 05            [ 1]  262 	clr	(0x05, sp)
      000107 90 89            [ 2]  263 	pushw	y
      000109 16 07            [ 2]  264 	ldw	y, (0x07, sp)
      00010B 90 89            [ 2]  265 	pushw	y
      00010D 88               [ 1]  266 	push	a
      00010E 4F               [ 1]  267 	clr	a
      00010F 88               [ 1]  268 	push	a
      000110 1E 07            [ 2]  269 	ldw	x, (0x07, sp)
      000112 89               [ 2]  270 	pushw	x
      000113 CDr00r00         [ 4]  271 	call	__mullong
      000116 5B 08            [ 2]  272 	addw	sp, #8
      000118 4B 64            [ 1]  273 	push	#0x64
      00011A 4B 00            [ 1]  274 	push	#0x00
      00011C 4B 00            [ 1]  275 	push	#0x00
      00011E 4B 00            [ 1]  276 	push	#0x00
      000120 89               [ 2]  277 	pushw	x
      000121 90 89            [ 2]  278 	pushw	y
      000123 CDr00r00         [ 4]  279 	call	__divulong
      000126 5B 08            [ 2]  280 	addw	sp, #8
                                    281 ;	../../libs/stm8_PWM.c: 89: write_PWM(channel, value);
      000128 7B 09            [ 1]  282 	ld	a, (0x09, sp)
      00012A 16 0A            [ 2]  283 	ldw	y, (10, sp)
      00012C 17 0B            [ 2]  284 	ldw	(11, sp), y
      00012E 5B 0A            [ 2]  285 	addw	sp, #10
                                    286 ;	../../libs/stm8_PWM.c: 90: }
      000130 CCr00rBC         [ 2]  287 	jp	_write_PWM
      000133 84               [ 1]  288 	pop	a
      000134 FC               [ 2]  289 	jp	(x)
                                    290 	.area CODE
                                    291 	.area CONST
                                    292 	.area INITIALIZER
      000000                        293 __xinit__memory_period:
      000000 00 00                  294 	.dw #0x0000
                                    295 	.area CABS (ABS)
