                                      1 ;--------------------------------------------------------
                                      2 ; File Created by SDCC : free open source ISO C Compiler
                                      3 ; Version 4.5.10 #15702 (MINGW64)
                                      4 ;--------------------------------------------------------
                                      5 	.module stm8_GPIO
                                      6 	
                                      7 ;--------------------------------------------------------
                                      8 ; Public variables in this module
                                      9 ;--------------------------------------------------------
                                     10 	.globl _pinMode
                                     11 	.globl _writePin
                                     12 	.globl _togglePin
                                     13 	.globl _readPin
                                     14 ;--------------------------------------------------------
                                     15 ; ram data
                                     16 ;--------------------------------------------------------
                                     17 	.area DATA
                                     18 ;--------------------------------------------------------
                                     19 ; ram data
                                     20 ;--------------------------------------------------------
                                     21 	.area INITIALIZED
                                     22 ;--------------------------------------------------------
                                     23 ; absolute external ram data
                                     24 ;--------------------------------------------------------
                                     25 	.area DABS (ABS)
                                     26 
                                     27 ; default segment ordering for linker
                                     28 	.area HOME
                                     29 	.area GSINIT
                                     30 	.area GSFINAL
                                     31 	.area CONST
                                     32 	.area INITIALIZER
                                     33 	.area CODE
                                     34 
                                     35 ;--------------------------------------------------------
                                     36 ; global & static initialisations
                                     37 ;--------------------------------------------------------
                                     38 	.area HOME
                                     39 	.area GSINIT
                                     40 	.area GSFINAL
                                     41 	.area GSINIT
                                     42 ;--------------------------------------------------------
                                     43 ; Home
                                     44 ;--------------------------------------------------------
                                     45 	.area HOME
                                     46 	.area HOME
                                     47 ;--------------------------------------------------------
                                     48 ; code
                                     49 ;--------------------------------------------------------
                                     50 	.area CODE
                                     51 ;	../../libs/stm8_GPIO.c: 3: void pinMode(volatile uint8_t* port, uint8_t pin, uint8_t mode) {
                                     52 ;	-----------------------------------------
                                     53 ;	 function pinMode
                                     54 ;	-----------------------------------------
      000000                         55 _pinMode:
      000000 52 06            [ 2]   56 	sub	sp, #6
                                     57 ;	../../libs/stm8_GPIO.c: 5: *(port + 2) |= (1 << pin);
      000002 1F 05            [ 2]   58 	ldw	(0x05, sp), x
      000004 5C               [ 1]   59 	incw	x
      000005 5C               [ 1]   60 	incw	x
      000006 88               [ 1]   61 	push	a
      000007 A6 01            [ 1]   62 	ld	a, #0x01
      000009 6B 02            [ 1]   63 	ld	(0x02, sp), a
      00000B 84               [ 1]   64 	pop	a
      00000C 4D               [ 1]   65 	tnz	a
      00000D 27 05            [ 1]   66 	jreq	00153$
      00000F                         67 00152$:
      00000F 08 01            [ 1]   68 	sll	(0x01, sp)
      000011 4A               [ 1]   69 	dec	a
      000012 26 FB            [ 1]   70 	jrne	00152$
      000014                         71 00153$:
                                     72 ;	../../libs/stm8_GPIO.c: 6: *(port + 3) |= (1 << pin);
      000014 16 05            [ 2]   73 	ldw	y, (0x05, sp)
      000016 72 A9 00 03      [ 2]   74 	addw	y, #0x0003
      00001A 17 02            [ 2]   75 	ldw	(0x02, sp), y
                                     76 ;	../../libs/stm8_GPIO.c: 4: if (mode == OUTPUT) {
      00001C 0D 09            [ 1]   77 	tnz	(0x09, sp)
      00001E 26 0E            [ 1]   78 	jrne	00113$
                                     79 ;	../../libs/stm8_GPIO.c: 5: *(port + 2) |= (1 << pin);
      000020 F6               [ 1]   80 	ld	a, (x)
      000021 1A 01            [ 1]   81 	or	a, (0x01, sp)
      000023 F7               [ 1]   82 	ld	(x), a
                                     83 ;	../../libs/stm8_GPIO.c: 6: *(port + 3) |= (1 << pin);
      000024 1E 02            [ 2]   84 	ldw	x, (0x02, sp)
      000026 F6               [ 1]   85 	ld	a, (x)
      000027 1A 01            [ 1]   86 	or	a, (0x01, sp)
      000029 1E 02            [ 2]   87 	ldw	x, (0x02, sp)
      00002B F7               [ 1]   88 	ld	(x), a
      00002C 20 5B            [ 2]   89 	jra	00115$
      00002E                         90 00113$:
                                     91 ;	../../libs/stm8_GPIO.c: 8: else if (mode == OUTPUT_FAST) {
      00002E 7B 09            [ 1]   92 	ld	a, (0x09, sp)
      000030 4A               [ 1]   93 	dec	a
      000031 26 17            [ 1]   94 	jrne	00110$
                                     95 ;	../../libs/stm8_GPIO.c: 9: *(port + 2) |= (1 << pin);
      000033 F6               [ 1]   96 	ld	a, (x)
      000034 1A 01            [ 1]   97 	or	a, (0x01, sp)
      000036 F7               [ 1]   98 	ld	(x), a
                                     99 ;	../../libs/stm8_GPIO.c: 10: *(port + 3) |= (1 << pin);
      000037 1E 02            [ 2]  100 	ldw	x, (0x02, sp)
      000039 F6               [ 1]  101 	ld	a, (x)
      00003A 1A 01            [ 1]  102 	or	a, (0x01, sp)
      00003C 1E 02            [ 2]  103 	ldw	x, (0x02, sp)
      00003E F7               [ 1]  104 	ld	(x), a
                                    105 ;	../../libs/stm8_GPIO.c: 11: *(port + 4) |= (1 << pin);
      00003F 1E 05            [ 2]  106 	ldw	x, (0x05, sp)
      000041 1C 00 04         [ 2]  107 	addw	x, #0x0004
      000044 F6               [ 1]  108 	ld	a, (x)
      000045 1A 01            [ 1]  109 	or	a, (0x01, sp)
      000047 F7               [ 1]  110 	ld	(x), a
      000048 20 3F            [ 2]  111 	jra	00115$
      00004A                        112 00110$:
                                    113 ;	../../libs/stm8_GPIO.c: 14: *(port + 2) &= ~(1 << pin);
      00004A 7B 01            [ 1]  114 	ld	a, (0x01, sp)
      00004C 43               [ 1]  115 	cpl	a
      00004D 6B 04            [ 1]  116 	ld	(0x04, sp), a
                                    117 ;	../../libs/stm8_GPIO.c: 13: else if (mode == INPUT) {
      00004F 7B 09            [ 1]  118 	ld	a, (0x09, sp)
      000051 A1 02            [ 1]  119 	cp	a, #0x02
      000053 26 0E            [ 1]  120 	jrne	00107$
                                    121 ;	../../libs/stm8_GPIO.c: 14: *(port + 2) &= ~(1 << pin);
      000055 F6               [ 1]  122 	ld	a, (x)
      000056 14 04            [ 1]  123 	and	a, (0x04, sp)
      000058 F7               [ 1]  124 	ld	(x), a
                                    125 ;	../../libs/stm8_GPIO.c: 15: *(port + 3) &= ~(1 << pin);
      000059 1E 02            [ 2]  126 	ldw	x, (0x02, sp)
      00005B F6               [ 1]  127 	ld	a, (x)
      00005C 14 04            [ 1]  128 	and	a, (0x04, sp)
      00005E 1E 02            [ 2]  129 	ldw	x, (0x02, sp)
      000060 F7               [ 1]  130 	ld	(x), a
      000061 20 26            [ 2]  131 	jra	00115$
      000063                        132 00107$:
                                    133 ;	../../libs/stm8_GPIO.c: 17: else if (mode == INPUT_PULLUP) {
      000063 7B 09            [ 1]  134 	ld	a, (0x09, sp)
      000065 A1 03            [ 1]  135 	cp	a, #0x03
      000067 26 0E            [ 1]  136 	jrne	00104$
                                    137 ;	../../libs/stm8_GPIO.c: 18: *(port + 2) &= ~(1 << pin);
      000069 F6               [ 1]  138 	ld	a, (x)
      00006A 14 04            [ 1]  139 	and	a, (0x04, sp)
      00006C F7               [ 1]  140 	ld	(x), a
                                    141 ;	../../libs/stm8_GPIO.c: 19: *(port + 3) |= (1 << pin);
      00006D 1E 02            [ 2]  142 	ldw	x, (0x02, sp)
      00006F F6               [ 1]  143 	ld	a, (x)
      000070 1A 01            [ 1]  144 	or	a, (0x01, sp)
      000072 1E 02            [ 2]  145 	ldw	x, (0x02, sp)
      000074 F7               [ 1]  146 	ld	(x), a
      000075 20 12            [ 2]  147 	jra	00115$
      000077                        148 00104$:
                                    149 ;	../../libs/stm8_GPIO.c: 21: else if (mode == OUTPUT_OD) {
      000077 7B 09            [ 1]  150 	ld	a, (0x09, sp)
      000079 A1 04            [ 1]  151 	cp	a, #0x04
      00007B 26 0C            [ 1]  152 	jrne	00115$
                                    153 ;	../../libs/stm8_GPIO.c: 22: *(port + 2) |= (1 << pin);  // DDR = 1 (Выход)
      00007D F6               [ 1]  154 	ld	a, (x)
      00007E 1A 01            [ 1]  155 	or	a, (0x01, sp)
      000080 F7               [ 1]  156 	ld	(x), a
                                    157 ;	../../libs/stm8_GPIO.c: 23: *(port + 3) &= ~(1 << pin); // CR1 = 0 (Open Drain)
      000081 1E 02            [ 2]  158 	ldw	x, (0x02, sp)
      000083 F6               [ 1]  159 	ld	a, (x)
      000084 14 04            [ 1]  160 	and	a, (0x04, sp)
      000086 1E 02            [ 2]  161 	ldw	x, (0x02, sp)
      000088 F7               [ 1]  162 	ld	(x), a
      000089                        163 00115$:
                                    164 ;	../../libs/stm8_GPIO.c: 25: }
      000089 5B 06            [ 2]  165 	addw	sp, #6
      00008B 85               [ 2]  166 	popw	x
      00008C 84               [ 1]  167 	pop	a
      00008D FC               [ 2]  168 	jp	(x)
                                    169 ;	../../libs/stm8_GPIO.c: 27: void writePin(volatile uint8_t* port, uint8_t pin, uint8_t state) {
                                    170 ;	-----------------------------------------
                                    171 ;	 function writePin
                                    172 ;	-----------------------------------------
      00008E                        173 _writePin:
      00008E 52 04            [ 2]  174 	sub	sp, #4
                                    175 ;	../../libs/stm8_GPIO.c: 29: *port |= (1 << pin);
      000090 1F 03            [ 2]  176 	ldw	(0x03, sp), x
      000092 88               [ 1]  177 	push	a
      000093 A6 01            [ 1]  178 	ld	a, #0x01
      000095 6B 02            [ 1]  179 	ld	(0x02, sp), a
      000097 84               [ 1]  180 	pop	a
      000098 4D               [ 1]  181 	tnz	a
      000099 27 05            [ 1]  182 	jreq	00114$
      00009B                        183 00113$:
      00009B 08 01            [ 1]  184 	sll	(0x01, sp)
      00009D 4A               [ 1]  185 	dec	a
      00009E 26 FB            [ 1]  186 	jrne	00113$
      0000A0                        187 00114$:
      0000A0 F6               [ 1]  188 	ld	a, (x)
      0000A1 6B 02            [ 1]  189 	ld	(0x02, sp), a
                                    190 ;	../../libs/stm8_GPIO.c: 28: if (state == HIGH) {
      0000A3 7B 07            [ 1]  191 	ld	a, (0x07, sp)
      0000A5 4A               [ 1]  192 	dec	a
      0000A6 26 07            [ 1]  193 	jrne	00102$
                                    194 ;	../../libs/stm8_GPIO.c: 29: *port |= (1 << pin);
      0000A8 7B 02            [ 1]  195 	ld	a, (0x02, sp)
      0000AA 1A 01            [ 1]  196 	or	a, (0x01, sp)
      0000AC F7               [ 1]  197 	ld	(x), a
      0000AD 20 06            [ 2]  198 	jra	00104$
      0000AF                        199 00102$:
                                    200 ;	../../libs/stm8_GPIO.c: 31: else {*port &= ~(1 << pin);}
      0000AF 7B 01            [ 1]  201 	ld	a, (0x01, sp)
      0000B1 43               [ 1]  202 	cpl	a
      0000B2 14 02            [ 1]  203 	and	a, (0x02, sp)
      0000B4 F7               [ 1]  204 	ld	(x), a
      0000B5                        205 00104$:
                                    206 ;	../../libs/stm8_GPIO.c: 32: }
      0000B5 5B 04            [ 2]  207 	addw	sp, #4
      0000B7 85               [ 2]  208 	popw	x
      0000B8 84               [ 1]  209 	pop	a
      0000B9 FC               [ 2]  210 	jp	(x)
                                    211 ;	../../libs/stm8_GPIO.c: 34: void togglePin(volatile uint8_t* port, uint8_t pin) {
                                    212 ;	-----------------------------------------
                                    213 ;	 function togglePin
                                    214 ;	-----------------------------------------
      0000BA                        215 _togglePin:
      0000BA 52 04            [ 2]  216 	sub	sp, #4
      0000BC 1F 03            [ 2]  217 	ldw	(0x03, sp), x
      0000BE 6B 02            [ 1]  218 	ld	(0x02, sp), a
                                    219 ;	../../libs/stm8_GPIO.c: 35: *port ^= (1 << pin);
      0000C0 1E 03            [ 2]  220 	ldw	x, (0x03, sp)
      0000C2 F6               [ 1]  221 	ld	a, (x)
      0000C3 88               [ 1]  222 	push	a
      0000C4 A6 01            [ 1]  223 	ld	a, #0x01
      0000C6 6B 02            [ 1]  224 	ld	(0x02, sp), a
      0000C8 7B 03            [ 1]  225 	ld	a, (0x03, sp)
      0000CA 27 05            [ 1]  226 	jreq	00104$
      0000CC                        227 00103$:
      0000CC 08 02            [ 1]  228 	sll	(0x02, sp)
      0000CE 4A               [ 1]  229 	dec	a
      0000CF 26 FB            [ 1]  230 	jrne	00103$
      0000D1                        231 00104$:
      0000D1 84               [ 1]  232 	pop	a
      0000D2 18 01            [ 1]  233 	xor	a, (0x01, sp)
      0000D4 F7               [ 1]  234 	ld	(x), a
                                    235 ;	../../libs/stm8_GPIO.c: 36: }
      0000D5 5B 04            [ 2]  236 	addw	sp, #4
      0000D7 81               [ 4]  237 	ret
                                    238 ;	../../libs/stm8_GPIO.c: 38: uint8_t readPin(volatile uint8_t* port, uint8_t pin) {
                                    239 ;	-----------------------------------------
                                    240 ;	 function readPin
                                    241 ;	-----------------------------------------
      0000D8                        242 _readPin:
      0000D8 52 07            [ 2]  243 	sub	sp, #7
      0000DA 1F 06            [ 2]  244 	ldw	(0x06, sp), x
      0000DC 6B 05            [ 1]  245 	ld	(0x05, sp), a
                                    246 ;	../../libs/stm8_GPIO.c: 39: if (*(port +1) & (1 << pin)) {
      0000DE 1E 06            [ 2]  247 	ldw	x, (0x06, sp)
      0000E0 E6 01            [ 1]  248 	ld	a, (0x1, x)
      0000E2 88               [ 1]  249 	push	a
      0000E3 5F               [ 1]  250 	clrw	x
      0000E4 5C               [ 1]  251 	incw	x
      0000E5 7B 06            [ 1]  252 	ld	a, (0x06, sp)
      0000E7 27 04            [ 1]  253 	jreq	00113$
      0000E9                        254 00112$:
      0000E9 58               [ 2]  255 	sllw	x
      0000EA 4A               [ 1]  256 	dec	a
      0000EB 26 FC            [ 1]  257 	jrne	00112$
      0000ED                        258 00113$:
      0000ED 84               [ 1]  259 	pop	a
      0000EE 6B 02            [ 1]  260 	ld	(0x02, sp), a
      0000F0 0F 01            [ 1]  261 	clr	(0x01, sp)
      0000F2 9F               [ 1]  262 	ld	a, xl
      0000F3 14 02            [ 1]  263 	and	a, (0x02, sp)
      0000F5 6B 04            [ 1]  264 	ld	(0x04, sp), a
      0000F7 0F 03            [ 1]  265 	clr	(0x03, sp)
      0000F9 1E 03            [ 2]  266 	ldw	x, (0x03, sp)
      0000FB 27 03            [ 1]  267 	jreq	00102$
                                    268 ;	../../libs/stm8_GPIO.c: 40: return 1;
      0000FD A6 01            [ 1]  269 	ld	a, #0x01
                                    270 ;	../../libs/stm8_GPIO.c: 42: return 0;
      0000FF 21                     271 	.byte 0x21
      000100                        272 00102$:
      000100 4F               [ 1]  273 	clr	a
      000101                        274 00103$:
                                    275 ;	../../libs/stm8_GPIO.c: 43: }
      000101 5B 07            [ 2]  276 	addw	sp, #7
      000103 81               [ 4]  277 	ret
                                    278 	.area CODE
                                    279 	.area CONST
                                    280 	.area INITIALIZER
                                    281 	.area CABS (ABS)
